target datalayout = "e-m:e-p270:32:32-p271:32:32-p272:64:64-i64:64-i128:128-f80:128-n8:16:32:64-S128"
target triple = "x86_64-pc-linux-gnu"

%struct.ok_struct = type { i64, i64, i64, i64, i32, i32, ptr, i32, i32, [4292 x i8] }

@.str.3 = private unnamed_addr constant [31 x i8] c"../openssl/crypto/evp/bio_ok.c\00", align 1

; Function Attrs: nounwind uwtable
define internal i32 @ok_free(ptr noundef %0) #0 {
  %2 = alloca i32, align 4
  %3 = alloca ptr, align 8
  %4 = alloca ptr, align 8
  %5 = alloca i32, align 4
  store ptr %0, ptr %3, align 8, !tbaa !3
  call void @llvm.lifetime.start.p0(i64 8, ptr %4) #5
  %6 = load ptr, ptr %3, align 8, !tbaa !3
  %7 = icmp eq ptr %6, null
  br i1 %7, label %8, label %9

8:                                                ; preds = %1
  store i32 0, ptr %2, align 4
  store i32 1, ptr %5, align 4
  br label %18

9:                                                ; preds = %1
  %10 = load ptr, ptr %3, align 8, !tbaa !3
  %11 = call ptr @BIO_get_data(ptr noundef %10)
  store ptr %11, ptr %4, align 8, !tbaa !12
  %12 = load ptr, ptr %4, align 8, !tbaa !12
  %13 = getelementptr inbounds nuw %struct.ok_struct, ptr %12, i32 0, i32 6
  %14 = load ptr, ptr %13, align 8, !tbaa !34
  call void @EVP_MD_CTX_free(ptr noundef %14)
  %15 = load ptr, ptr %4, align 8, !tbaa !12
  call void @CRYPTO_clear_free(ptr noundef %15, i64 noundef 4352, ptr noundef @.str.3, i32 noundef 161)
  %16 = load ptr, ptr %3, align 8, !tbaa !3
  call void @BIO_set_data(ptr noundef %16, ptr noundef null)
  %17 = load ptr, ptr %3, align 8, !tbaa !3
  call void @BIO_set_init(ptr noundef %17, i32 noundef 0)
  store i32 1, ptr %2, align 4
  store i32 1, ptr %5, align 4
  br label %18

18:                                               ; preds = %9, %8
  call void @llvm.lifetime.end.p0(i64 8, ptr %4) #5
  %19 = load i32, ptr %2, align 4
  ret i32 %19
}