; Function Attrs: nounwind uwtable
define internal range(i32 0, 2) i32 @ok_free(ptr noundef %0) #2 {
  %2 = icmp eq ptr %0, null
  br i1 %2, label %7, label %3

3:                                                ; preds = %1
  %4 = tail call ptr @BIO_get_data(ptr noundef nonnull %0) #8
  %5 = getelementptr inbounds nuw i8, ptr %4, i64 40
  %6 = load ptr, ptr %5, align 8, !tbaa !11
  tail call void @EVP_MD_CTX_free(ptr noundef %6) #8
  tail call void @CRYPTO_clear_free(ptr noundef %4, i64 noundef 4352, ptr noundef nonnull @.str.3, i32 noundef 161) #8
  tail call void @BIO_set_data(ptr noundef nonnull %0, ptr noundef null) #8
  tail call void @BIO_set_init(ptr noundef nonnull %0, i32 noundef 0) #8
  br label %7

7:                                                ; preds = %1, %3
  %.0 = phi i32 [ 1, %3 ], [ 0, %1 ]
  ret i32 %.0
}